; Function Attrs: nounwind uwtable
define dso_local void @perl_quote_buf_with_len(ptr noundef %0, ptr noundef readonly %1, i64 noundef %2) local_unnamed_addr #0 {
  %4 = getelementptr inbounds nuw i8, ptr %1, i64 %2
  %5 = load i64, ptr %0, align 8, !tbaa !11
  %.not.i.i = icmp eq i64 %5, 0
  br i1 %.not.i.i, label %strbuf_avail.exit.thread.i, label %strbuf_avail.exit.i

strbuf_avail.exit.i:                              ; preds = %3
  %6 = getelementptr inbounds nuw i8, ptr %0, i64 8
  %7 = load i64, ptr %6, align 8, !tbaa !12
  %.neg.i = add i64 %7, 1
  %.not.i = icmp eq i64 %5, %.neg.i
  br i1 %.not.i, label %strbuf_avail.exit.thread.i, label %strbuf_addch.exit

strbuf_avail.exit.thread.i:                       ; preds = %strbuf_avail.exit.i, %3
  tail call void @strbuf_grow(ptr noundef nonnull %0, i64 noundef 1) #12
  %.phi.trans.insert.i = getelementptr inbounds nuw i8, ptr %0, i64 8
  %.pre.i = load i64, ptr %.phi.trans.insert.i, align 8, !tbaa !12
  %.pre7.i = add i64 %.pre.i, 1
  br label %strbuf_addch.exit

strbuf_addch.exit:                                ; preds = %strbuf_avail.exit.i, %strbuf_avail.exit.thread.i
  %.pre-phi.i = phi i64 [ %.pre7.i, %strbuf_avail.exit.thread.i ], [ %.neg.i, %strbuf_avail.exit.i ]
  %8 = phi i64 [ %.pre.i, %strbuf_avail.exit.thread.i ], [ %7, %strbuf_avail.exit.i ]
  %9 = getelementptr inbounds nuw i8, ptr %0, i64 16
  %10 = load ptr, ptr %9, align 8, !tbaa !4
  %11 = getelementptr inbounds nuw i8, ptr %0, i64 8
  store i64 %.pre-phi.i, ptr %11, align 8, !tbaa !12
  %12 = getelementptr inbounds nuw i8, ptr %10, i64 %8
  store i8 39, ptr %12, align 1, !tbaa !13
  %13 = load ptr, ptr %9, align 8, !tbaa !4
  %14 = load i64, ptr %11, align 8, !tbaa !12
  %15 = getelementptr inbounds nuw i8, ptr %13, i64 %14
  store i8 0, ptr %15, align 1, !tbaa !13
  %.not43 = icmp samesign eq i64 %2, 0
  br i1 %.not43, label %._crit_edge, label %.lr.ph

.lr.ph:                                           ; preds = %strbuf_addch.exit, %strbuf_addch.exit32
  %.044 = phi ptr [ %36, %strbuf_addch.exit32 ], [ %1, %strbuf_addch.exit ]
  %16 = load i8, ptr %.044, align 1, !tbaa !13
  switch i8 %16, label %26 [
    i8 39, label %17
    i8 92, label %17
  ]

17:                                               ; preds = %.lr.ph, %.lr.ph
  %18 = load i64, ptr %0, align 8, !tbaa !11
  %.not.i.i13 = icmp eq i64 %18, 0
  br i1 %.not.i.i13, label %strbuf_avail.exit.thread.i18, label %strbuf_avail.exit.i14

strbuf_avail.exit.i14:                            ; preds = %17
  %19 = load i64, ptr %11, align 8, !tbaa !12
  %.neg.i15 = add i64 %19, 1
  %.not.i16 = icmp eq i64 %18, %.neg.i15
  br i1 %.not.i16, label %strbuf_avail.exit.thread.i18, label %strbuf_addch.exit22

strbuf_avail.exit.thread.i18:                     ; preds = %strbuf_avail.exit.i14, %17
  tail call void @strbuf_grow(ptr noundef nonnull %0, i64 noundef 1) #12
  %.pre.i20 = load i64, ptr %11, align 8, !tbaa !12
  %.pre7.i21 = add i64 %.pre.i20, 1
  br label %strbuf_addch.exit22

strbuf_addch.exit22:                              ; preds = %strbuf_avail.exit.i14, %strbuf_avail.exit.thread.i18
  %.pre-phi.i17 = phi i64 [ %.pre7.i21, %strbuf_avail.exit.thread.i18 ], [ %.neg.i15, %strbuf_avail.exit.i14 ]
  %20 = phi i64 [ %.pre.i20, %strbuf_avail.exit.thread.i18 ], [ %19, %strbuf_avail.exit.i14 ]
  %21 = load ptr, ptr %9, align 8, !tbaa !4
  store i64 %.pre-phi.i17, ptr %11, align 8, !tbaa !12
  %22 = getelementptr inbounds nuw i8, ptr %21, i64 %20
  store i8 92, ptr %22, align 1, !tbaa !13
  %23 = load ptr, ptr %9, align 8, !tbaa !4
  %24 = load i64, ptr %11, align 8, !tbaa !12
  %25 = getelementptr inbounds nuw i8, ptr %23, i64 %24
  store i8 0, ptr %25, align 1, !tbaa !13
  %.pre = load i8, ptr %.044, align 1, !tbaa !13
  br label %26

26:                                               ; preds = %.lr.ph, %strbuf_addch.exit22
  %27 = phi i8 [ %16, %.lr.ph ], [ %.pre, %strbuf_addch.exit22 ]
  %28 = load i64, ptr %0, align 8, !tbaa !11
  %.not.i.i23 = icmp eq i64 %28, 0
  br i1 %.not.i.i23, label %strbuf_avail.exit.thread.i28, label %strbuf_avail.exit.i24

strbuf_avail.exit.i24:                            ; preds = %26
  %29 = load i64, ptr %11, align 8, !tbaa !12
  %.neg.i25 = add i64 %29, 1
  %.not.i26 = icmp eq i64 %28, %.neg.i25
  br i1 %.not.i26, label %strbuf_avail.exit.thread.i28, label %strbuf_addch.exit32

strbuf_avail.exit.thread.i28:                     ; preds = %strbuf_avail.exit.i24, %26
  tail call void @strbuf_grow(ptr noundef nonnull %0, i64 noundef 1) #12
  %.pre.i30 = load i64, ptr %11, align 8, !tbaa !12
  %.pre7.i31 = add i64 %.pre.i30, 1
  br label %strbuf_addch.exit32

strbuf_addch.exit32:                              ; preds = %strbuf_avail.exit.i24, %strbuf_avail.exit.thread.i28
  %.pre-phi.i27 = phi i64 [ %.pre7.i31, %strbuf_avail.exit.thread.i28 ], [ %.neg.i25, %strbuf_avail.exit.i24 ]
  %30 = phi i64 [ %.pre.i30, %strbuf_avail.exit.thread.i28 ], [ %29, %strbuf_avail.exit.i24 ]
  %31 = load ptr, ptr %9, align 8, !tbaa !4
  store i64 %.pre-phi.i27, ptr %11, align 8, !tbaa !12
  %32 = getelementptr inbounds nuw i8, ptr %31, i64 %30
  store i8 %27, ptr %32, align 1, !tbaa !13
  %33 = load ptr, ptr %9, align 8, !tbaa !4
  %34 = load i64, ptr %11, align 8, !tbaa !12
  %35 = getelementptr inbounds nuw i8, ptr %33, i64 %34
  store i8 0, ptr %35, align 1, !tbaa !13
  %36 = getelementptr inbounds nuw i8, ptr %.044, i64 1
  %.not = icmp eq ptr %36, %4
  br i1 %.not, label %._crit_edge, label %.lr.ph, !llvm.loop !29

._crit_edge:                                      ; preds = %strbuf_addch.exit32, %strbuf_addch.exit
  %37 = load i64, ptr %0, align 8, !tbaa !11
  %.not.i.i33 = icmp eq i64 %37, 0
  br i1 %.not.i.i33, label %strbuf_avail.exit.thread.i38, label %strbuf_avail.exit.i34

strbuf_avail.exit.i34:                            ; preds = %._crit_edge
  %38 = load i64, ptr %11, align 8, !tbaa !12
  %.neg.i35 = add i64 %38, 1
  %.not.i36 = icmp eq i64 %37, %.neg.i35
  br i1 %.not.i36, label %strbuf_avail.exit.thread.i38, label %strbuf_addch.exit42

strbuf_avail.exit.thread.i38:                     ; preds = %strbuf_avail.exit.i34, %._crit_edge
  tail call void @strbuf_grow(ptr noundef nonnull %0, i64 noundef 1) #12
  %.pre.i40 = load i64, ptr %11, align 8, !tbaa !12
  %.pre7.i41 = add i64 %.pre.i40, 1
  br label %strbuf_addch.exit42

strbuf_addch.exit42:                              ; preds = %strbuf_avail.exit.i34, %strbuf_avail.exit.thread.i38
  %.pre-phi.i37 = phi i64 [ %.pre7.i41, %strbuf_avail.exit.thread.i38 ], [ %.neg.i35, %strbuf_avail.exit.i34 ]
  %39 = phi i64 [ %.pre.i40, %strbuf_avail.exit.thread.i38 ], [ %38, %strbuf_avail.exit.i34 ]
  %40 = load ptr, ptr %9, align 8, !tbaa !4
  store i64 %.pre-phi.i37, ptr %11, align 8, !tbaa !12
  %41 = getelementptr inbounds nuw i8, ptr %40, i64 %39
  store i8 39, ptr %41, align 1, !tbaa !13
  %42 = load ptr, ptr %9, align 8, !tbaa !4
  %43 = load i64, ptr %11, align 8, !tbaa !12
  %44 = getelementptr inbounds nuw i8, ptr %42, i64 %43
  store i8 0, ptr %44, align 1, !tbaa !13
  ret void
}